; Function Attrs: mustprogress uwtable
define noundef nonnull align 8 dereferenceable(160) ptr @_ZN2cv7GRunArgaSERKS0_(ptr noundef nonnull returned align 8 dereferenceable(160) %0, ptr noundef nonnull align 8 dereferenceable(160) %1) local_unnamed_addr #4 align 2 {
  %3 = load i64, ptr %0, align 8, !tbaa !3
  %4 = load i64, ptr %1, align 8, !tbaa !3
  %.not.i = icmp eq i64 %3, %4
  %5 = getelementptr inbounds nuw i8, ptr %0, i64 8
  br i1 %.not.i, label %14, label %6

6:                                                ; preds = %2
  %7 = getelementptr inbounds nuw [8 x ptr], ptr @constinit, i64 0, i64 %3
  %8 = load ptr, ptr %7, align 8, !tbaa !19
  tail call void %8(ptr noundef nonnull %5)
  %9 = load i64, ptr %1, align 8, !tbaa !3
  %10 = getelementptr inbounds nuw [8 x ptr], ptr @constinit.1, i64 0, i64 %9
  %11 = load ptr, ptr %10, align 8, !tbaa !19
  %12 = getelementptr inbounds nuw i8, ptr %1, i64 8
  tail call void %11(ptr noundef nonnull %5, ptr noundef nonnull %12)
  %13 = load i64, ptr %1, align 8, !tbaa !3
  store i64 %13, ptr %0, align 8, !tbaa !3
  br label %_ZN2cv4util7variantIJNS_4UMatENS_4RMatESt10shared_ptrINS_4gapi3wip13IStreamSourceEENS_3MatENS_7Scalar_IdEENS_6detail9VectorRefENSC_9OpaqueRefENS_10MediaFrameEEEaSERKSG_.exit

14:                                               ; preds = %2
  %15 = getelementptr inbounds nuw [8 x ptr], ptr @constinit.2, i64 0, i64 %3
  %16 = load ptr, ptr %15, align 8, !tbaa !19
  %17 = getelementptr inbounds nuw i8, ptr %1, i64 8
  tail call void %16(ptr noundef nonnull %5, ptr noundef nonnull %17)
  br label %_ZN2cv4util7variantIJNS_4UMatENS_4RMatESt10shared_ptrINS_4gapi3wip13IStreamSourceEENS_3MatENS_7Scalar_IdEENS_6detail9VectorRefENSC_9OpaqueRefENS_10MediaFrameEEEaSERKSG_.exit

_ZN2cv4util7variantIJNS_4UMatENS_4RMatESt10shared_ptrINS_4gapi3wip13IStreamSourceEENS_3MatENS_7Scalar_IdEENS_6detail9VectorRefENSC_9OpaqueRefENS_10MediaFrameEEEaSERKSG_.exit: ; preds = %6, %14
  %18 = icmp eq ptr %1, %0
  br i1 %18, label %_ZNSt13unordered_mapINSt7__cxx1112basic_stringIcSt11char_traitsIcESaIcEEEN2cv4util3anyESt4hashIS5_ESt8equal_toIS5_ESaISt4pairIKS5_S8_EEEaSERKSH_.exit, label %19

19:                                               ; preds = %_ZN2cv4util7variantIJNS_4UMatENS_4RMatESt10shared_ptrINS_4gapi3wip13IStreamSourceEENS_3MatENS_7Scalar_IdEENS_6detail9VectorRefENSC_9OpaqueRefENS_10MediaFrameEEEaSERKSG_.exit
  %20 = getelementptr inbounds nuw i8, ptr %0, i64 104
  %21 = getelementptr inbounds nuw i8, ptr %1, i64 104
  tail call void @_ZNSt10_HashtableINSt7__cxx1112basic_stringIcSt11char_traitsIcESaIcEEESt4pairIKS5_N2cv4util3anyEESaISB_ENSt8__detail10_Select1stESt8equal_toIS5_ESt4hashIS5_ENSD_18_Mod_range_hashingENSD_20_Default_ranged_hashENSD_20_Prime_rehash_policyENSD_17_Hashtable_traitsILb1ELb0ELb1EEEE18_M_assign_elementsIRKSO_EEvOT_(ptr noundef nonnull align 8 dereferenceable(56) %20, ptr noundef nonnull align 8 dereferenceable(56) %21)
  br label %_ZNSt13unordered_mapINSt7__cxx1112basic_stringIcSt11char_traitsIcESaIcEEEN2cv4util3anyESt4hashIS5_ESt8equal_toIS5_ESaISt4pairIKS5_S8_EEEaSERKSH_.exit

_ZNSt13unordered_mapINSt7__cxx1112basic_stringIcSt11char_traitsIcESaIcEEEN2cv4util3anyESt4hashIS5_ESt8equal_toIS5_ESaISt4pairIKS5_S8_EEEaSERKSH_.exit: ; preds = %_ZN2cv4util7variantIJNS_4UMatENS_4RMatESt10shared_ptrINS_4gapi3wip13IStreamSourceEENS_3MatENS_7Scalar_IdEENS_6detail9VectorRefENSC_9OpaqueRefENS_10MediaFrameEEEaSERKSG_.exit, %19
  ret ptr %0
}